; Function Attrs: mustprogress nofree norecurse nosync nounwind willreturn memory(argmem: read) uwtable
define noundef zeroext i1 @_Z33integratorHasReferenceTemperatureRK10t_inputrec(ptr noundef nonnull readonly align 8 captures(none) dereferenceable(880) %0) local_unnamed_addr #15 {
  %2 = getelementptr inbounds nuw i8, ptr %0, i64 192
  %3 = load i32, ptr %2, align 8, !tbaa !242
  %.not = icmp eq i32 %3, 0
  br i1 %.not, label %4, label %switch.edge

4:                                                ; preds = %1
  %5 = getelementptr inbounds nuw i8, ptr %0, i64 4
  %6 = load i32, ptr %5, align 4, !tbaa !265
  %7 = icmp ult i32 %6, 10
  br i1 %7, label %switch.lookup, label %switch.edge

switch.lookup:                                    ; preds = %4
  %switch.cast = trunc nuw i32 %6 to i10
  %switch.downshift = lshr i10 -120, %switch.cast
  %switch.masked = trunc i10 %switch.downshift to i1
  br label %switch.edge

switch.edge:                                      ; preds = %4, %switch.lookup, %1
  %8 = phi i1 [ true, %1 ], [ %switch.masked, %switch.lookup ], [ false, %4 ]
  ret i1 %8
}